; Function Attrs: nounwind uwtable
define ptr @l_Lean_Meta_reduce_visit___boxed(ptr noundef %0, ptr noundef %1, ptr noundef %2, ptr noundef %3, ptr noundef %4, ptr noundef %5, ptr noundef %6, ptr noundef %7, ptr noundef %8, ptr noundef %9) local_unnamed_addr #1 {
  %11 = ptrtoint ptr %0 to i64
  %12 = and i64 %11, 1
  %.not = icmp eq i64 %12, 0
  br i1 %.not, label %13, label %lean_dec.exit17

13:                                               ; preds = %10
  %14 = load i32, ptr %0, align 4, !tbaa !8
  %15 = icmp sgt i32 %14, 1
  br i1 %15, label %16, label %18, !prof !11

16:                                               ; preds = %13
  %17 = add nsw i32 %14, -1
  store i32 %17, ptr %0, align 4, !tbaa !8
  br label %lean_dec.exit17

18:                                               ; preds = %13
  %.not.i = icmp eq i32 %14, 0
  br i1 %.not.i, label %lean_dec.exit17, label %19

19:                                               ; preds = %18
  tail call void @lean_dec_ref_cold(ptr noundef nonnull %0) #4
  br label %lean_dec.exit17

lean_dec.exit17:                                  ; preds = %19, %18, %16, %10
  %20 = ptrtoint ptr %1 to i64
  %21 = and i64 %20, 1
  %.not22 = icmp eq i64 %21, 0
  br i1 %.not22, label %22, label %lean_dec.exit16

22:                                               ; preds = %lean_dec.exit17
  %23 = load i32, ptr %1, align 4, !tbaa !8
  %24 = icmp sgt i32 %23, 1
  br i1 %24, label %25, label %27, !prof !11

25:                                               ; preds = %22
  %26 = add nsw i32 %23, -1
  store i32 %26, ptr %1, align 4, !tbaa !8
  br label %lean_dec.exit16

27:                                               ; preds = %22
  %.not.i18 = icmp eq i32 %23, 0
  br i1 %.not.i18, label %lean_dec.exit16, label %28

28:                                               ; preds = %27
  tail call void @lean_dec_ref_cold(ptr noundef nonnull %1) #4
  br label %lean_dec.exit16

lean_dec.exit16:                                  ; preds = %28, %27, %25, %lean_dec.exit17
  %29 = ptrtoint ptr %2 to i64
  %30 = and i64 %29, 1
  %.not23 = icmp eq i64 %30, 0
  br i1 %.not23, label %31, label %lean_dec.exit

31:                                               ; preds = %lean_dec.exit16
  %32 = load i32, ptr %2, align 4, !tbaa !8
  %33 = icmp sgt i32 %32, 1
  br i1 %33, label %34, label %36, !prof !11

34:                                               ; preds = %31
  %35 = add nsw i32 %32, -1
  store i32 %35, ptr %2, align 4, !tbaa !8
  br label %lean_dec.exit

36:                                               ; preds = %31
  %.not.i20 = icmp eq i32 %32, 0
  br i1 %.not.i20, label %lean_dec.exit, label %37

37:                                               ; preds = %36
  tail call void @lean_dec_ref_cold(ptr noundef nonnull %2) #4
  br label %lean_dec.exit

lean_dec.exit:                                    ; preds = %37, %36, %34, %lean_dec.exit16
  %38 = lshr i64 %29, 1
  %39 = trunc i64 %38 to i8
  %40 = lshr i64 %20, 1
  %41 = trunc i64 %40 to i8
  %42 = lshr i64 %11, 1
  %43 = trunc i64 %42 to i8
  %44 = tail call ptr @l_Lean_Meta_reduce_visit(i8 noundef zeroext %43, i8 noundef zeroext %41, i8 noundef zeroext %39, ptr noundef %3, ptr noundef %4, ptr noundef %5, ptr noundef %6, ptr noundef %7, ptr noundef %8, ptr noundef %9)
  ret ptr %44
}